; ModuleID = '31/1145.c'
source_filename = "31/1145.c"
target datalayout = "e-m:e-p270:32:32-p271:32:32-p272:64:64-i64:64-f80:128-n8:16:32:64-S128"
target triple = "x86_64-pc-linux-gnu"

%struct.student = type { [10 x i8], [20 x i8], i8, [15 x i8], i32, float, %struct.student*, %struct.student* }

@.str = private unnamed_addr constant [3 x i8] c"%s\00", align 1
@.str.1 = private unnamed_addr constant [15 x i8] c"%s %c %d %f %s\00", align 1
@.str.2 = private unnamed_addr constant [19 x i8] c"%s %s %c %d %g %s\0A\00", align 1

; Function Attrs: noinline nounwind uwtable
define dso_local void @main() #0 {
  %1 = alloca %struct.student*, align 8
  %2 = alloca %struct.student*, align 8
  %3 = alloca %struct.student*, align 8
  %4 = call noalias i8* @malloc(i64 72) #3
  %5 = bitcast i8* %4 to %struct.student*
  store %struct.student* %5, %struct.student** %1, align 8
  %6 = load %struct.student*, %struct.student** %1, align 8
  store %struct.student* %6, %struct.student** %2, align 8
  %7 = load %struct.student*, %struct.student** %1, align 8
  %8 = getelementptr inbounds %struct.student, %struct.student* %7, i32 0, i32 7
  store %struct.student* null, %struct.student** %8, align 8
  br label %9

9:                                                ; preds = %0, %46
  %10 = load %struct.student*, %struct.student** %1, align 8
  %11 = getelementptr inbounds %struct.student, %struct.student* %10, i32 0, i32 0
  %12 = getelementptr inbounds [10 x i8], [10 x i8]* %11, i64 0, i64 0
  %13 = call i32 (i8*, ...) @__isoc99_scanf(i8* getelementptr inbounds ([3 x i8], [3 x i8]* @.str, i64 0, i64 0), i8* %12)
  %14 = load %struct.student*, %struct.student** %1, align 8
  %15 = getelementptr inbounds %struct.student, %struct.student* %14, i32 0, i32 0
  %16 = getelementptr inbounds [10 x i8], [10 x i8]* %15, i64 0, i64 0
  %17 = load i8, i8* %16, align 8
  %18 = sext i8 %17 to i32
  %19 = icmp ne i32 %18, 101
  br i1 %19, label %20, label %42

20:                                               ; preds = %9
  %21 = load %struct.student*, %struct.student** %1, align 8
  %22 = getelementptr inbounds %struct.student, %struct.student* %21, i32 0, i32 1
  %23 = getelementptr inbounds [20 x i8], [20 x i8]* %22, i64 0, i64 0
  %24 = load %struct.student*, %struct.student** %1, align 8
  %25 = getelementptr inbounds %struct.student, %struct.student* %24, i32 0, i32 2
  %26 = load %struct.student*, %struct.student** %1, align 8
  %27 = getelementptr inbounds %struct.student, %struct.student* %26, i32 0, i32 4
  %28 = load %struct.student*, %struct.student** %1, align 8
  %29 = getelementptr inbounds %struct.student, %struct.student* %28, i32 0, i32 5
  %30 = load %struct.student*, %struct.student** %1, align 8
  %31 = getelementptr inbounds %struct.student, %struct.student* %30, i32 0, i32 3
  %32 = getelementptr inbounds [15 x i8], [15 x i8]* %31, i64 0, i64 0
  %33 = call i32 (i8*, ...) @__isoc99_scanf(i8* getelementptr inbounds ([15 x i8], [15 x i8]* @.str.1, i64 0, i64 0), i8* %23, i8* %25, i32* %27, float* %29, i8* %32)
  %34 = call noalias i8* @malloc(i64 72) #3
  %35 = bitcast i8* %34 to %struct.student*
  %36 = load %struct.student*, %struct.student** %1, align 8
  %37 = getelementptr inbounds %struct.student, %struct.student* %36, i32 0, i32 6
  store %struct.student* %35, %struct.student** %37, align 8
  store %struct.student* %35, %struct.student** %3, align 8
  %38 = load %struct.student*, %struct.student** %1, align 8
  %39 = load %struct.student*, %struct.student** %3, align 8
  %40 = getelementptr inbounds %struct.student, %struct.student* %39, i32 0, i32 7
  store %struct.student* %38, %struct.student** %40, align 8
  %41 = load %struct.student*, %struct.student** %3, align 8
  store %struct.student* %41, %struct.student** %1, align 8
  br label %46

42:                                               ; preds = %9
  %43 = load %struct.student*, %struct.student** %1, align 8
  %44 = getelementptr inbounds %struct.student, %struct.student* %43, i32 0, i32 7
  %45 = load %struct.student*, %struct.student** %44, align 8
  store %struct.student* %45, %struct.student** %2, align 8
  br label %47

46:                                               ; preds = %20
  br label %9

47:                                               ; preds = %42
  %48 = load %struct.student*, %struct.student** %2, align 8
  store %struct.student* %48, %struct.student** %1, align 8
  br label %49

49:                                               ; preds = %47, %80
  %50 = load %struct.student*, %struct.student** %1, align 8
  %51 = getelementptr inbounds %struct.student, %struct.student* %50, i32 0, i32 0
  %52 = getelementptr inbounds [10 x i8], [10 x i8]* %51, i64 0, i64 0
  %53 = load %struct.student*, %struct.student** %1, align 8
  %54 = getelementptr inbounds %struct.student, %struct.student* %53, i32 0, i32 1
  %55 = getelementptr inbounds [20 x i8], [20 x i8]* %54, i64 0, i64 0
  %56 = load %struct.student*, %struct.student** %1, align 8
  %57 = getelementptr inbounds %struct.student, %struct.student* %56, i32 0, i32 2
  %58 = load i8, i8* %57, align 2
  %59 = sext i8 %58 to i32
  %60 = load %struct.student*, %struct.student** %1, align 8
  %61 = getelementptr inbounds %struct.student, %struct.student* %60, i32 0, i32 4
  %62 = load i32, i32* %61, align 8
  %63 = load %struct.student*, %struct.student** %1, align 8
  %64 = getelementptr inbounds %struct.student, %struct.student* %63, i32 0, i32 5
  %65 = load float, float* %64, align 4
  %66 = fpext float %65 to double
  %67 = load %struct.student*, %struct.student** %1, align 8
  %68 = getelementptr inbounds %struct.student, %struct.student* %67, i32 0, i32 3
  %69 = getelementptr inbounds [15 x i8], [15 x i8]* %68, i64 0, i64 0
  %70 = call i32 (i8*, ...) @printf(i8* getelementptr inbounds ([19 x i8], [19 x i8]* @.str.2, i64 0, i64 0), i8* %52, i8* %55, i32 %59, i32 %62, double %66, i8* %69)
  %71 = load %struct.student*, %struct.student** %1, align 8
  %72 = getelementptr inbounds %struct.student, %struct.student* %71, i32 0, i32 7
  %73 = load %struct.student*, %struct.student** %72, align 8
  %74 = icmp ne %struct.student* %73, null
  br i1 %74, label %75, label %79

75:                                               ; preds = %49
  %76 = load %struct.student*, %struct.student** %1, align 8
  %77 = getelementptr inbounds %struct.student, %struct.student* %76, i32 0, i32 7
  %78 = load %struct.student*, %struct.student** %77, align 8
  store %struct.student* %78, %struct.student** %1, align 8
  br label %80

79:                                               ; preds = %49
  br label %81

80:                                               ; preds = %75
  br label %49

81:                                               ; preds = %79
  ret void
}

; Function Attrs: nounwind
declare dso_local noalias i8* @malloc(i64) #1

declare dso_local i32 @__isoc99_scanf(i8*, ...) #2

declare dso_local i32 @printf(i8*, ...) #2


!llvm.module.flags = !{!0}
!llvm.ident = !{!1}

!0 = !{i32 1, !"wchar_size", i32 4}
!1 = !{!"clang version 10.0.0-4ubuntu1 "}
